target datalayout = "e-m:e-p270:32:32-p271:32:32-p272:64:64-i64:64-i128:128-f80:128-n8:16:32:64-S128"
target triple = "x86_64-pc-linux-gnu"

%"class.pxrInternal_v0_24__pxrReserved__::TfUtf8CodePoint" = type { i32 }

@_ZN32pxrInternal_v0_24__pxrReserved__L22TfUtf8InvalidCodePointE = internal constant %"class.pxrInternal_v0_24__pxrReserved__::TfUtf8CodePoint" { i32 65533 }, align 4

; Function Attrs: mustprogress nounwind uwtable
define linkonce_odr noundef i32 @_ZNK32pxrInternal_v0_24__pxrReserved__15TfUtf8CodePoint8AsUInt32Ev(ptr noundef nonnull align 4 dereferenceable(4) %0) #1 comdat align 2 {
  %2 = alloca ptr, align 8
  store ptr %0, ptr %2, align 8
  %3 = load ptr, ptr %2, align 8
  %4 = getelementptr inbounds nuw %"class.pxrInternal_v0_24__pxrReserved__::TfUtf8CodePoint", ptr %3, i32 0, i32 0
  %5 = load i32, ptr %4, align 4
  ret i32 %5
}

; Function Attrs: mustprogress uwtable
define noundef nonnull align 8 dereferenceable(8) ptr @_ZN32pxrInternal_v0_24__pxrReserved__lsERSoNS_15TfUtf8CodePointE(ptr noundef nonnull align 8 dereferenceable(8) %0, i32 %1) #0 {
  %3 = alloca %"class.pxrInternal_v0_24__pxrReserved__::TfUtf8CodePoint", align 4
  %4 = alloca ptr, align 8
  %5 = alloca i32, align 4
  %6 = alloca %"class.pxrInternal_v0_24__pxrReserved__::TfUtf8CodePoint", align 4
  %7 = getelementptr inbounds nuw %"class.pxrInternal_v0_24__pxrReserved__::TfUtf8CodePoint", ptr %3, i32 0, i32 0
  store i32 %1, ptr %7, align 4
  store ptr %0, ptr %4, align 8
  %8 = call noundef i32 @_ZNK32pxrInternal_v0_24__pxrReserved__15TfUtf8CodePoint8AsUInt32Ev(ptr noundef nonnull align 4 dereferenceable(4) %3)
  store i32 %8, ptr %5, align 4
  %9 = load i32, ptr %5, align 4
  %10 = icmp ult i32 %9, 128
  br i1 %10, label %11, label %16

11:                                               ; preds = %2
  %12 = load ptr, ptr %4, align 8
  %13 = load i32, ptr %5, align 4
  %14 = trunc i32 %13 to i8
  %15 = call noundef nonnull align 8 dereferenceable(8) ptr @_ZStlsISt11char_traitsIcEERSt13basic_ostreamIcT_ES5_c(ptr noundef nonnull align 8 dereferenceable(8) %12, i8 noundef signext %14)
  br label %93

16:                                               ; preds = %2
  %17 = load i32, ptr %5, align 4
  %18 = icmp ult i32 %17, 2048
  br i1 %18, label %19, label %32

19:                                               ; preds = %16
  %20 = load ptr, ptr %4, align 8
  %21 = load i32, ptr %5, align 4
  %22 = lshr i32 %21, 6
  %23 = or i32 %22, 192
  %24 = trunc i32 %23 to i8
  %25 = call noundef nonnull align 8 dereferenceable(8) ptr @_ZStlsISt11char_traitsIcEERSt13basic_ostreamIcT_ES5_c(ptr noundef nonnull align 8 dereferenceable(8) %20, i8 noundef signext %24)
  %26 = load ptr, ptr %4, align 8
  %27 = load i32, ptr %5, align 4
  %28 = and i32 %27, 63
  %29 = or i32 %28, 128
  %30 = trunc i32 %29 to i8
  %31 = call noundef nonnull align 8 dereferenceable(8) ptr @_ZStlsISt11char_traitsIcEERSt13basic_ostreamIcT_ES5_c(ptr noundef nonnull align 8 dereferenceable(8) %26, i8 noundef signext %30)
  br label %92

32:                                               ; preds = %16
  %33 = load i32, ptr %5, align 4
  %34 = icmp ult i32 %33, 65536
  br i1 %34, label %35, label %55

35:                                               ; preds = %32
  %36 = load ptr, ptr %4, align 8
  %37 = load i32, ptr %5, align 4
  %38 = lshr i32 %37, 12
  %39 = or i32 %38, 224
  %40 = trunc i32 %39 to i8
  %41 = call noundef nonnull align 8 dereferenceable(8) ptr @_ZStlsISt11char_traitsIcEERSt13basic_ostreamIcT_ES5_c(ptr noundef nonnull align 8 dereferenceable(8) %36, i8 noundef signext %40)
  %42 = load ptr, ptr %4, align 8
  %43 = load i32, ptr %5, align 4
  %44 = lshr i32 %43, 6
  %45 = and i32 %44, 63
  %46 = or i32 %45, 128
  %47 = trunc i32 %46 to i8
  %48 = call noundef nonnull align 8 dereferenceable(8) ptr @_ZStlsISt11char_traitsIcEERSt13basic_ostreamIcT_ES5_c(ptr noundef nonnull align 8 dereferenceable(8) %42, i8 noundef signext %47)
  %49 = load ptr, ptr %4, align 8
  %50 = load i32, ptr %5, align 4
  %51 = and i32 %50, 63
  %52 = or i32 %51, 128
  %53 = trunc i32 %52 to i8
  %54 = call noundef nonnull align 8 dereferenceable(8) ptr @_ZStlsISt11char_traitsIcEERSt13basic_ostreamIcT_ES5_c(ptr noundef nonnull align 8 dereferenceable(8) %49, i8 noundef signext %53)
  br label %91

55:                                               ; preds = %32
  %56 = load i32, ptr %5, align 4
  %57 = icmp ult i32 %56, 1114112
  br i1 %57, label %58, label %85

58:                                               ; preds = %55
  %59 = load ptr, ptr %4, align 8
  %60 = load i32, ptr %5, align 4
  %61 = lshr i32 %60, 18
  %62 = or i32 %61, 240
  %63 = trunc i32 %62 to i8
  %64 = call noundef nonnull align 8 dereferenceable(8) ptr @_ZStlsISt11char_traitsIcEERSt13basic_ostreamIcT_ES5_c(ptr noundef nonnull align 8 dereferenceable(8) %59, i8 noundef signext %63)
  %65 = load ptr, ptr %4, align 8
  %66 = load i32, ptr %5, align 4
  %67 = lshr i32 %66, 12
  %68 = and i32 %67, 63
  %69 = or i32 %68, 128
  %70 = trunc i32 %69 to i8
  %71 = call noundef nonnull align 8 dereferenceable(8) ptr @_ZStlsISt11char_traitsIcEERSt13basic_ostreamIcT_ES5_c(ptr noundef nonnull align 8 dereferenceable(8) %65, i8 noundef signext %70)
  %72 = load ptr, ptr %4, align 8
  %73 = load i32, ptr %5, align 4
  %74 = lshr i32 %73, 6
  %75 = and i32 %74, 63
  %76 = or i32 %75, 128
  %77 = trunc i32 %76 to i8
  %78 = call noundef nonnull align 8 dereferenceable(8) ptr @_ZStlsISt11char_traitsIcEERSt13basic_ostreamIcT_ES5_c(ptr noundef nonnull align 8 dereferenceable(8) %72, i8 noundef signext %77)
  %79 = load ptr, ptr %4, align 8
  %80 = load i32, ptr %5, align 4
  %81 = and i32 %80, 63
  %82 = or i32 %81, 128
  %83 = trunc i32 %82 to i8
  %84 = call noundef nonnull align 8 dereferenceable(8) ptr @_ZStlsISt11char_traitsIcEERSt13basic_ostreamIcT_ES5_c(ptr noundef nonnull align 8 dereferenceable(8) %79, i8 noundef signext %83)
  br label %90

85:                                               ; preds = %55
  %86 = load ptr, ptr %4, align 8
  call void @llvm.memcpy.p0.p0.i64(ptr align 4 %6, ptr align 4 @_ZN32pxrInternal_v0_24__pxrReserved__L22TfUtf8InvalidCodePointE, i64 4, i1 false)
  %87 = getelementptr inbounds nuw %"class.pxrInternal_v0_24__pxrReserved__::TfUtf8CodePoint", ptr %6, i32 0, i32 0
  %88 = load i32, ptr %87, align 4
  %89 = call noundef nonnull align 8 dereferenceable(8) ptr @_ZN32pxrInternal_v0_24__pxrReserved__lsERSoNS_15TfUtf8CodePointE(ptr noundef nonnull align 8 dereferenceable(8) %86, i32 %88)
  br label %90

90:                                               ; preds = %85, %58
  br label %91

91:                                               ; preds = %90, %35
  br label %92

92:                                               ; preds = %91, %19
  br label %93

93:                                               ; preds = %92, %11
  %94 = load ptr, ptr %4, align 8
  ret ptr %94
}