; Function Attrs: mustprogress uwtable
define noundef nonnull align 8 dereferenceable(8) ptr @_ZN32pxrInternal_v0_24__pxrReserved__lsERSoNS_15TfUtf8CodePointE(ptr noundef nonnull returned align 8 dereferenceable(8) %0, i32 %1) local_unnamed_addr #0 {
  %3 = icmp ult i32 %1, 128
  br i1 %3, label %7, label %.lr.ph.split

.lr.ph.split:                                     ; preds = %2
  %4 = icmp ult i32 %1, 2048
  br i1 %4, label %.split.us, label %.lr.ph61.split

.lr.ph61.split:                                   ; preds = %.lr.ph.split
  %5 = icmp ult i32 %1, 65536
  br i1 %5, label %.split46.us, label %.lr.ph85.split.us

.lr.ph85.split.us:                                ; preds = %.lr.ph61.split
  %6 = icmp ult i32 %1, 1114112
  br i1 %6, label %.split51.us, label %.split46.us

7:                                                ; preds = %2
  %8 = trunc nuw nsw i32 %1 to i8
  br label %45

.split.us:                                        ; preds = %.lr.ph.split
  %9 = lshr i32 %1, 6
  %10 = trunc nuw i32 %9 to i8
  %11 = or disjoint i8 %10, -64
  %12 = tail call noundef nonnull align 8 dereferenceable(8) ptr @_ZStlsISt11char_traitsIcEERSt13basic_ostreamIcT_ES5_c(ptr noundef nonnull align 8 dereferenceable(8) %0, i8 noundef signext %11)
  %13 = trunc i32 %1 to i8
  %14 = and i8 %13, 63
  %15 = or disjoint i8 %14, -128
  br label %45

.split46.us:                                      ; preds = %.lr.ph85.split.us, %.lr.ph61.split
  %.us-phi47 = phi i32 [ %1, %.lr.ph61.split ], [ 65533, %.lr.ph85.split.us ]
  %16 = lshr i32 %.us-phi47, 12
  %17 = trunc nuw nsw i32 %16 to i8
  %18 = or disjoint i8 %17, -32
  %19 = tail call noundef nonnull align 8 dereferenceable(8) ptr @_ZStlsISt11char_traitsIcEERSt13basic_ostreamIcT_ES5_c(ptr noundef nonnull align 8 dereferenceable(8) %0, i8 noundef signext %18)
  %20 = lshr i32 %.us-phi47, 6
  %21 = trunc i32 %20 to i8
  %22 = and i8 %21, 63
  %23 = or disjoint i8 %22, -128
  %24 = tail call noundef nonnull align 8 dereferenceable(8) ptr @_ZStlsISt11char_traitsIcEERSt13basic_ostreamIcT_ES5_c(ptr noundef nonnull align 8 dereferenceable(8) %0, i8 noundef signext %23)
  %25 = trunc i32 %.us-phi47 to i8
  %26 = and i8 %25, 63
  %27 = or disjoint i8 %26, -128
  br label %45

.split51.us:                                      ; preds = %.lr.ph85.split.us
  %28 = lshr i32 %1, 18
  %29 = trunc nuw i32 %28 to i8
  %30 = or disjoint i8 %29, -16
  %31 = tail call noundef nonnull align 8 dereferenceable(8) ptr @_ZStlsISt11char_traitsIcEERSt13basic_ostreamIcT_ES5_c(ptr noundef nonnull align 8 dereferenceable(8) %0, i8 noundef signext %30)
  %32 = lshr i32 %1, 12
  %33 = trunc i32 %32 to i8
  %34 = and i8 %33, 63
  %35 = or disjoint i8 %34, -128
  %36 = tail call noundef nonnull align 8 dereferenceable(8) ptr @_ZStlsISt11char_traitsIcEERSt13basic_ostreamIcT_ES5_c(ptr noundef nonnull align 8 dereferenceable(8) %0, i8 noundef signext %35)
  %37 = lshr i32 %1, 6
  %38 = trunc i32 %37 to i8
  %39 = and i8 %38, 63
  %40 = or disjoint i8 %39, -128
  %41 = tail call noundef nonnull align 8 dereferenceable(8) ptr @_ZStlsISt11char_traitsIcEERSt13basic_ostreamIcT_ES5_c(ptr noundef nonnull align 8 dereferenceable(8) %0, i8 noundef signext %40)
  %42 = trunc i32 %1 to i8
  %43 = and i8 %42, 63
  %44 = or disjoint i8 %43, -128
  br label %45

45:                                               ; preds = %.split.us, %.split51.us, %.split46.us, %7
  %.sink = phi i8 [ %15, %.split.us ], [ %44, %.split51.us ], [ %27, %.split46.us ], [ %8, %7 ]
  %46 = tail call noundef nonnull align 8 dereferenceable(8) ptr @_ZStlsISt11char_traitsIcEERSt13basic_ostreamIcT_ES5_c(ptr noundef nonnull align 8 dereferenceable(8) %0, i8 noundef signext %.sink)
  ret ptr %0
}